; Function Attrs: nounwind uwtable
define hidden zeroext i1 @SDL_ReadU32BE_REAL(ptr noundef %0, ptr noundef writeonly captures(address_is_null) %1) local_unnamed_addr #0 {
  %3 = alloca i32, align 4
  call void @llvm.lifetime.start.p0(i64 4, ptr nonnull %3) #18
  store i32 0, ptr %3, align 4
  %.not.i = icmp eq ptr %0, null
  br i1 %.not.i, label %4, label %6

4:                                                ; preds = %2
  %5 = tail call zeroext i1 (ptr, ...) @SDL_SetError_REAL(ptr noundef nonnull @.str.2, ptr noundef nonnull @.str.11) #18
  br label %SDL_ReadIO_REAL.exit

6:                                                ; preds = %2
  %7 = getelementptr inbounds nuw i8, ptr %0, i64 24
  %8 = load ptr, ptr %7, align 8
  %.not17.i = icmp eq ptr %8, null
  %9 = getelementptr inbounds nuw i8, ptr %0, i64 64
  br i1 %.not17.i, label %10, label %12

10:                                               ; preds = %6
  store i32 5, ptr %9, align 8
  %11 = tail call zeroext i1 (ptr, ...) @SDL_SetError_REAL(ptr noundef nonnull @.str.18) #18
  br label %SDL_ReadIO_REAL.exit

12:                                               ; preds = %6
  store i32 0, ptr %9, align 8
  %13 = tail call zeroext i1 @SDL_ClearError_REAL() #18
  %14 = load ptr, ptr %7, align 8
  %15 = getelementptr inbounds nuw i8, ptr %0, i64 56
  %16 = load ptr, ptr %15, align 8
  %17 = call i64 %14(ptr noundef %16, ptr noundef nonnull %3, i64 noundef 4, ptr noundef nonnull %9) #18
  %18 = icmp eq i64 %17, 0
  br i1 %18, label %19, label %SDL_ReadIO_REAL.exit

19:                                               ; preds = %12
  %20 = load i32, ptr %9, align 8
  %21 = icmp eq i32 %20, 0
  br i1 %21, label %22, label %SDL_ReadIO_REAL.exit

22:                                               ; preds = %19
  %23 = call ptr @SDL_GetError_REAL() #18
  %24 = load i8, ptr %23, align 1
  %.not18.i = icmp eq i8 %24, 0
  br i1 %.not18.i, label %26, label %25

25:                                               ; preds = %22
  store i32 1, ptr %9, align 8
  br label %SDL_ReadIO_REAL.exit

26:                                               ; preds = %22
  store i32 2, ptr %9, align 8
  br label %SDL_ReadIO_REAL.exit

SDL_ReadIO_REAL.exit:                             ; preds = %4, %10, %12, %19, %25, %26
  %.0.i = phi i64 [ 0, %10 ], [ 0, %4 ], [ 0, %25 ], [ 0, %26 ], [ 0, %19 ], [ %17, %12 ]
  %.not = icmp eq ptr %1, null
  br i1 %.not, label %30, label %27

27:                                               ; preds = %SDL_ReadIO_REAL.exit
  %28 = load i32, ptr %3, align 4
  %29 = call i32 @llvm.bswap.i32(i32 %28)
  store i32 %29, ptr %1, align 4
  br label %30

30:                                               ; preds = %27, %SDL_ReadIO_REAL.exit
  %31 = icmp eq i64 %.0.i, 4
  call void @llvm.lifetime.end.p0(i64 4, ptr nonnull %3) #18
  ret i1 %31
}